target datalayout = "e-m:e-p270:32:32-p271:32:32-p272:64:64-i64:64-i128:128-f80:128-n8:16:32:64-S128"
target triple = "x86_64-pc-linux-gnu"

%class.FileLine = type { i16, i16, i32, i32, i32, i32, i32, ptr, ptr }
%class.V3ErrorCode = type { i8 }

@__dso_handle = external hidden global i8
@_ZZN8FileLine15defaultFileLineEvE1s = linkonce_odr dso_local global %class.FileLine zeroinitializer, comdat, align 8
@_ZGVZN8FileLine15defaultFileLineEvE1s = linkonce_odr dso_local global i64 0, comdat, align 8

; Function Attrs: mustprogress uwtable
define linkonce_odr dso_local void @_ZN8FileLine7warnOffE11V3ErrorCodeb(ptr noundef nonnull align 8 dereferenceable(40) %0, i8 %1, i1 noundef zeroext %2) #4 comdat align 2 {
  %4 = alloca %class.V3ErrorCode, align 1
  %5 = alloca ptr, align 8
  %6 = alloca i8, align 1
  %7 = alloca %class.V3ErrorCode, align 1
  %8 = getelementptr inbounds nuw %class.V3ErrorCode, ptr %4, i32 0, i32 0
  store i8 %1, ptr %8, align 1
  store ptr %0, ptr %5, align 8, !tbaa !50
  %9 = zext i1 %2 to i8
  store i8 %9, ptr %6, align 1, !tbaa !27
  %10 = load ptr, ptr %5, align 8
  call void @llvm.memcpy.p0.p0.i64(ptr align 1 %7, ptr align 1 %4, i64 1, i1 false), !tbaa.struct !1280
  %11 = load i8, ptr %6, align 1, !tbaa !27, !range !33, !noundef !34
  %12 = trunc i8 %11 to i1
  %13 = xor i1 %12, true
  %14 = getelementptr inbounds nuw %class.V3ErrorCode, ptr %7, i32 0, i32 0
  %15 = load i8, ptr %14, align 1
  call void @_ZN8FileLine6warnOnE11V3ErrorCodeb(ptr noundef nonnull align 8 dereferenceable(40) %10, i8 %15, i1 noundef zeroext %13)
  ret void
}

; Function Attrs: mustprogress uwtable
define linkonce_odr dso_local noundef nonnull align 8 dereferenceable(40) ptr @_ZN8FileLine15defaultFileLineEv() #4 comdat align 2 personality ptr @__gxx_personality_v0 {
  %1 = alloca ptr, align 8
  %2 = alloca i32, align 4
  %3 = load atomic i8, ptr @_ZGVZN8FileLine15defaultFileLineEvE1s acquire, align 8
  %4 = icmp eq i8 %3, 0
  br i1 %4, label %5, label %11, !prof !32

5:                                                ; preds = %0
  %6 = call i32 @__cxa_guard_acquire(ptr @_ZGVZN8FileLine15defaultFileLineEvE1s) #3
  %7 = icmp ne i32 %6, 0
  br i1 %7, label %8, label %11

8:                                                ; preds = %5
  invoke void @_ZN8FileLineC2Ev(ptr noundef nonnull align 8 dereferenceable(40) @_ZZN8FileLine15defaultFileLineEvE1s)
          to label %9 unwind label %12

9:                                                ; preds = %8
  %10 = call i32 @__cxa_atexit(ptr @_ZN8FileLineD1Ev, ptr @_ZZN8FileLine15defaultFileLineEvE1s, ptr @__dso_handle) #3
  call void @__cxa_guard_release(ptr @_ZGVZN8FileLine15defaultFileLineEvE1s) #3
  br label %11

11:                                               ; preds = %9, %5, %0
  ret ptr @_ZZN8FileLine15defaultFileLineEvE1s

12:                                               ; preds = %8
  %13 = landingpad { ptr, i32 }
          cleanup
  %14 = extractvalue { ptr, i32 } %13, 0
  store ptr %14, ptr %1, align 8
  %15 = extractvalue { ptr, i32 } %13, 1
  store i32 %15, ptr %2, align 4
  call void @__cxa_guard_abort(ptr @_ZGVZN8FileLine15defaultFileLineEvE1s) #3
  br label %16

16:                                               ; preds = %12
  %17 = load ptr, ptr %1, align 8
  %18 = load i32, ptr %2, align 4
  %19 = insertvalue { ptr, i32 } poison, ptr %17, 0
  %20 = insertvalue { ptr, i32 } %19, i32 %18, 1
  resume { ptr, i32 } %20
}

; Function Attrs: mustprogress uwtable
define linkonce_odr dso_local void @_ZN8FileLine13globalWarnOffE11V3ErrorCodeb(i8 %0, i1 noundef zeroext %1) #4 comdat align 2 {
  %3 = alloca %class.V3ErrorCode, align 1
  %4 = alloca i8, align 1
  %5 = alloca %class.V3ErrorCode, align 1
  %6 = getelementptr inbounds nuw %class.V3ErrorCode, ptr %3, i32 0, i32 0
  store i8 %0, ptr %6, align 1
  %7 = zext i1 %1 to i8
  store i8 %7, ptr %4, align 1, !tbaa !27
  %8 = call noundef nonnull align 8 dereferenceable(40) ptr @_ZN8FileLine15defaultFileLineEv()
  call void @llvm.memcpy.p0.p0.i64(ptr align 1 %5, ptr align 1 %3, i64 1, i1 false), !tbaa.struct !1280
  %9 = load i8, ptr %4, align 1, !tbaa !27, !range !33, !noundef !34
  %10 = trunc i8 %9 to i1
  %11 = getelementptr inbounds nuw %class.V3ErrorCode, ptr %5, i32 0, i32 0
  %12 = load i8, ptr %11, align 1
  call void @_ZN8FileLine7warnOffE11V3ErrorCodeb(ptr noundef nonnull align 8 dereferenceable(40) %8, i8 %12, i1 noundef zeroext %10)
  ret void
}

; Function Attrs: mustprogress nounwind uwtable
define linkonce_odr dso_local void @_ZN11V3ErrorCodeC2ENS_2enE(ptr noundef nonnull align 1 dereferenceable(1) %0, i8 noundef zeroext %1) unnamed_addr #6 comdat align 2 {
  %3 = alloca ptr, align 8
  %4 = alloca i8, align 1
  store ptr %0, ptr %3, align 8, !tbaa !67
  store i8 %1, ptr %4, align 1, !tbaa !69
  %5 = load ptr, ptr %3, align 8
  %6 = getelementptr inbounds nuw %class.V3ErrorCode, ptr %5, i32 0, i32 0
  %7 = load i8, ptr %4, align 1, !tbaa !69
  store i8 %7, ptr %6, align 1, !tbaa !71
  ret void
}

; Function Attrs: inlinehint mustprogress uwtable
define internal void @"_ZZN9V3Options13parseOptsListEP8FileLineRKNSt7__cxx1112basic_stringIcSt11char_traitsIcESaIcEEEiPPcENK5$_128clEv"(ptr noundef nonnull align 1 dereferenceable(1) %0) #9 align 2 {
  %2 = alloca ptr, align 8
  %3 = alloca %class.V3ErrorCode, align 1
  %4 = alloca %class.V3ErrorCode, align 1
  %5 = alloca %class.V3ErrorCode, align 1
  %6 = alloca %class.V3ErrorCode, align 1
  store ptr %0, ptr %2, align 8, !tbaa !134
  call void @_ZN11V3ErrorCodeC2ENS_2enE(ptr noundef nonnull align 1 dereferenceable(1) %3, i8 noundef zeroext 19)
  %7 = getelementptr inbounds nuw %class.V3ErrorCode, ptr %3, i32 0, i32 0
  %8 = load i8, ptr %7, align 1
  call void @_ZN8FileLine13globalWarnOffE11V3ErrorCodeb(i8 %8, i1 noundef zeroext false)
  call void @_ZN11V3ErrorCodeC2ENS_2enE(ptr noundef nonnull align 1 dereferenceable(1) %4, i8 noundef zeroext 42)
  %9 = getelementptr inbounds nuw %class.V3ErrorCode, ptr %4, i32 0, i32 0
  %10 = load i8, ptr %9, align 1
  call void @_ZN8FileLine13globalWarnOffE11V3ErrorCodeb(i8 %10, i1 noundef zeroext false)
  call void @_ZN11V3ErrorCodeC2ENS_2enE(ptr noundef nonnull align 1 dereferenceable(1) %5, i8 noundef zeroext 19)
  %11 = getelementptr inbounds nuw %class.V3ErrorCode, ptr %5, i32 0, i32 0
  %12 = load i8, ptr %11, align 1
  call void @_ZN7V3Error12pretendErrorE11V3ErrorCodeb(i8 %12, i1 noundef zeroext false)
  call void @_ZN11V3ErrorCodeC2ENS_2enE(ptr noundef nonnull align 1 dereferenceable(1) %6, i8 noundef zeroext 42)
  %13 = getelementptr inbounds nuw %class.V3ErrorCode, ptr %6, i32 0, i32 0
  %14 = load i8, ptr %13, align 1
  call void @_ZN7V3Error12pretendErrorE11V3ErrorCodeb(i8 %14, i1 noundef zeroext false)
  ret void
}

; Function Attrs: mustprogress nounwind uwtable
define linkonce_odr dso_local noundef ptr @_ZNKSt9_Any_data9_M_accessEv(ptr noundef nonnull align 8 dereferenceable(16) %0) #6 comdat align 2 {
  %2 = alloca ptr, align 8
  store ptr %0, ptr %2, align 8, !tbaa !1269
  %3 = load ptr, ptr %2, align 8
  %4 = getelementptr inbounds [16 x i8], ptr %3, i64 0, i64 0
  ret ptr %4
}

; Function Attrs: mustprogress uwtable
define internal void @"_ZSt13__invoke_implIvRZN9V3Options13parseOptsListEP8FileLineRKNSt7__cxx1112basic_stringIcSt11char_traitsIcESaIcEEEiPPcE5$_128JEET_St14__invoke_otherOT0_DpOT1_"(ptr noundef nonnull align 1 dereferenceable(1) %0) #4 {
  %2 = alloca ptr, align 8
  store ptr %0, ptr %2, align 8, !tbaa !134
  %3 = load ptr, ptr %2, align 8, !tbaa !134
  call void @"_ZZN9V3Options13parseOptsListEP8FileLineRKNSt7__cxx1112basic_stringIcSt11char_traitsIcESaIcEEEiPPcENK5$_128clEv"(ptr noundef nonnull align 1 dereferenceable(1) %3)
  ret void
}

; Function Attrs: mustprogress nounwind uwtable
define internal noundef nonnull align 1 dereferenceable(1) ptr @"_ZNKSt9_Any_data9_M_accessIZN9V3Options13parseOptsListEP8FileLineRKNSt7__cxx1112basic_stringIcSt11char_traitsIcESaIcEEEiPPcE5$_128EERKT_v"(ptr noundef nonnull align 8 dereferenceable(16) %0) #6 align 2 {
  %2 = alloca ptr, align 8
  store ptr %0, ptr %2, align 8, !tbaa !1269
  %3 = load ptr, ptr %2, align 8
  %4 = call noundef ptr @_ZNKSt9_Any_data9_M_accessEv(ptr noundef nonnull align 8 dereferenceable(16) %3) #3
  ret ptr %4
}

; Function Attrs: mustprogress uwtable
define internal void @"_ZSt10__invoke_rIvRZN9V3Options13parseOptsListEP8FileLineRKNSt7__cxx1112basic_stringIcSt11char_traitsIcESaIcEEEiPPcE5$_128JEENSt9enable_ifIX16is_invocable_r_vIT_T0_DpT1_EESG_E4typeEOSH_DpOSI_"(ptr noundef nonnull align 1 dereferenceable(1) %0) #4 {
  %2 = alloca ptr, align 8
  store ptr %0, ptr %2, align 8, !tbaa !134
  %3 = load ptr, ptr %2, align 8, !tbaa !134
  call void @"_ZSt13__invoke_implIvRZN9V3Options13parseOptsListEP8FileLineRKNSt7__cxx1112basic_stringIcSt11char_traitsIcESaIcEEEiPPcE5$_128JEET_St14__invoke_otherOT0_DpOT1_"(ptr noundef nonnull align 1 dereferenceable(1) %3)
  ret void
}

; Function Attrs: mustprogress nounwind uwtable
define internal noundef ptr @"_ZNSt14_Function_base13_Base_managerIZN9V3Options13parseOptsListEP8FileLineRKNSt7__cxx1112basic_stringIcSt11char_traitsIcESaIcEEEiPPcE5$_128E14_M_get_pointerERKSt9_Any_data"(ptr noundef nonnull align 8 dereferenceable(16) %0) #6 align 2 {
  %2 = alloca ptr, align 8
  %3 = alloca ptr, align 8
  store ptr %0, ptr %2, align 8, !tbaa !1269
  call void @llvm.lifetime.start.p0(i64 8, ptr %3) #3
  %4 = load ptr, ptr %2, align 8, !tbaa !1269
  %5 = call noundef nonnull align 1 dereferenceable(1) ptr @"_ZNKSt9_Any_data9_M_accessIZN9V3Options13parseOptsListEP8FileLineRKNSt7__cxx1112basic_stringIcSt11char_traitsIcESaIcEEEiPPcE5$_128EERKT_v"(ptr noundef nonnull align 8 dereferenceable(16) %4) #3
  store ptr %5, ptr %3, align 8, !tbaa !134
  %6 = load ptr, ptr %3, align 8, !tbaa !134
  call void @llvm.lifetime.end.p0(i64 8, ptr %3) #3
  ret ptr %6
}

; Function Attrs: mustprogress uwtable
define internal void @"_ZNSt17_Function_handlerIFvvEZN9V3Options13parseOptsListEP8FileLineRKNSt7__cxx1112basic_stringIcSt11char_traitsIcESaIcEEEiPPcE5$_128E9_M_invokeERKSt9_Any_data"(ptr noundef nonnull align 8 dereferenceable(16) %0) #4 align 2 {
  %2 = alloca ptr, align 8
  store ptr %0, ptr %2, align 8, !tbaa !1269
  %3 = load ptr, ptr %2, align 8, !tbaa !1269
  %4 = call noundef ptr @"_ZNSt14_Function_base13_Base_managerIZN9V3Options13parseOptsListEP8FileLineRKNSt7__cxx1112basic_stringIcSt11char_traitsIcESaIcEEEiPPcE5$_128E14_M_get_pointerERKSt9_Any_data"(ptr noundef nonnull align 8 dereferenceable(16) %3) #3
  call void @"_ZSt10__invoke_rIvRZN9V3Options13parseOptsListEP8FileLineRKNSt7__cxx1112basic_stringIcSt11char_traitsIcESaIcEEEiPPcE5$_128JEENSt9enable_ifIX16is_invocable_r_vIT_T0_DpT1_EESG_E4typeEOSH_DpOSI_"(ptr noundef nonnull align 1 dereferenceable(1) %4)
  ret void
}