; Function Attrs: mustprogress uwtable
define internal void @"_ZNSt17_Function_handlerIFvvEZN9V3Options13parseOptsListEP8FileLineRKNSt7__cxx1112basic_stringIcSt11char_traitsIcESaIcEEEiPPcE5$_128E9_M_invokeERKSt9_Any_data"(ptr nonnull readnone align 8 captures(none) %0) #6 align 2 personality ptr @__gxx_personality_v0 {
  %2 = load atomic i8, ptr @_ZGVZN8FileLine15defaultFileLineEvE1s acquire, align 8
  %3 = icmp eq i8 %2, 0
  br i1 %3, label %4, label %_ZN8FileLine13globalWarnOffE11V3ErrorCodeb.exit.i.i.i, !prof !36

4:                                                ; preds = %1
  %5 = tail call i32 @__cxa_guard_acquire(ptr nonnull @_ZGVZN8FileLine15defaultFileLineEvE1s) #40
  %.not.i.i.i.i.i = icmp eq i32 %5, 0
  br i1 %.not.i.i.i.i.i, label %_ZN8FileLine13globalWarnOffE11V3ErrorCodeb.exit.i.i.i, label %6

6:                                                ; preds = %4
  invoke void @_ZN8FileLineC2Ev(ptr noundef nonnull align 8 dereferenceable(40) @_ZZN8FileLine15defaultFileLineEvE1s)
          to label %7 unwind label %9

7:                                                ; preds = %6
  %8 = tail call i32 @__cxa_atexit(ptr nonnull @_ZN8FileLineD1Ev, ptr nonnull @_ZZN8FileLine15defaultFileLineEvE1s, ptr nonnull @__dso_handle) #40
  tail call void @__cxa_guard_release(ptr nonnull @_ZGVZN8FileLine15defaultFileLineEvE1s) #40
  br label %_ZN8FileLine13globalWarnOffE11V3ErrorCodeb.exit.i.i.i

common.resume.i.i:                                ; preds = %27, %18, %9
  %_ZGVZN8FileLine9singletonEvE1s.sink.i.i = phi ptr [ @_ZGVZN8FileLine9singletonEvE1s, %27 ], [ @_ZGVZN8FileLine15defaultFileLineEvE1s, %18 ], [ @_ZGVZN8FileLine15defaultFileLineEvE1s, %9 ]
  %common.resume.op.i.i = phi { ptr, i32 } [ %28, %27 ], [ %19, %18 ], [ %10, %9 ]
  tail call void @__cxa_guard_abort(ptr nonnull %_ZGVZN8FileLine9singletonEvE1s.sink.i.i) #40
  resume { ptr, i32 } %common.resume.op.i.i

9:                                                ; preds = %6
  %10 = landingpad { ptr, i32 }
          cleanup
  br label %common.resume.i.i

_ZN8FileLine13globalWarnOffE11V3ErrorCodeb.exit.i.i.i: ; preds = %7, %4, %1
  tail call void @_ZN8FileLine6warnOnE11V3ErrorCodeb(ptr noundef nonnull align 8 dereferenceable(40) @_ZZN8FileLine15defaultFileLineEvE1s, i8 19, i1 noundef zeroext true)
  %11 = load atomic i8, ptr @_ZGVZN8FileLine15defaultFileLineEvE1s acquire, align 8
  %12 = icmp eq i8 %11, 0
  br i1 %12, label %13, label %"_ZZN9V3Options13parseOptsListEP8FileLineRKNSt7__cxx1112basic_stringIcSt11char_traitsIcESaIcEEEiPPcENK5$_128clEv.exit.i.i", !prof !36

13:                                               ; preds = %_ZN8FileLine13globalWarnOffE11V3ErrorCodeb.exit.i.i.i
  %14 = tail call i32 @__cxa_guard_acquire(ptr nonnull @_ZGVZN8FileLine15defaultFileLineEvE1s) #40
  %.not.i.i1.i.i.i = icmp eq i32 %14, 0
  br i1 %.not.i.i1.i.i.i, label %"_ZZN9V3Options13parseOptsListEP8FileLineRKNSt7__cxx1112basic_stringIcSt11char_traitsIcESaIcEEEiPPcENK5$_128clEv.exit.i.i", label %15

15:                                               ; preds = %13
  invoke void @_ZN8FileLineC2Ev(ptr noundef nonnull align 8 dereferenceable(40) @_ZZN8FileLine15defaultFileLineEvE1s)
          to label %16 unwind label %18

16:                                               ; preds = %15
  %17 = tail call i32 @__cxa_atexit(ptr nonnull @_ZN8FileLineD1Ev, ptr nonnull @_ZZN8FileLine15defaultFileLineEvE1s, ptr nonnull @__dso_handle) #40
  tail call void @__cxa_guard_release(ptr nonnull @_ZGVZN8FileLine15defaultFileLineEvE1s) #40
  br label %"_ZZN9V3Options13parseOptsListEP8FileLineRKNSt7__cxx1112basic_stringIcSt11char_traitsIcESaIcEEEiPPcENK5$_128clEv.exit.i.i"

18:                                               ; preds = %15
  %19 = landingpad { ptr, i32 }
          cleanup
  br label %common.resume.i.i

"_ZZN9V3Options13parseOptsListEP8FileLineRKNSt7__cxx1112basic_stringIcSt11char_traitsIcESaIcEEEiPPcENK5$_128clEv.exit.i.i": ; preds = %16, %13, %_ZN8FileLine13globalWarnOffE11V3ErrorCodeb.exit.i.i.i
  %20 = load atomic i8, ptr @_ZGVZN8FileLine9singletonEvE1s acquire, align 8
  %21 = icmp eq i8 %20, 0
  br i1 %21, label %22, label %"_ZSt10__invoke_rIvRZN9V3Options13parseOptsListEP8FileLineRKNSt7__cxx1112basic_stringIcSt11char_traitsIcESaIcEEEiPPcE5$_128JEENSt9enable_ifIX16is_invocable_r_vIT_T0_DpT1_EESG_E4typeEOSH_DpOSI_.exit", !prof !36

22:                                               ; preds = %"_ZZN9V3Options13parseOptsListEP8FileLineRKNSt7__cxx1112basic_stringIcSt11char_traitsIcESaIcEEEiPPcENK5$_128clEv.exit.i.i"
  %23 = tail call i32 @__cxa_guard_acquire(ptr nonnull @_ZGVZN8FileLine9singletonEvE1s) #40
  %.not.i.i.i.i = icmp eq i32 %23, 0
  br i1 %.not.i.i.i.i, label %"_ZSt10__invoke_rIvRZN9V3Options13parseOptsListEP8FileLineRKNSt7__cxx1112basic_stringIcSt11char_traitsIcESaIcEEEiPPcE5$_128JEENSt9enable_ifIX16is_invocable_r_vIT_T0_DpT1_EESG_E4typeEOSH_DpOSI_.exit", label %24

24:                                               ; preds = %22
  invoke void @_ZN17FileLineSingletonC2Ev(ptr noundef nonnull align 8 dereferenceable(328) @_ZZN8FileLine9singletonEvE1s)
          to label %25 unwind label %27

25:                                               ; preds = %24
  %26 = tail call i32 @__cxa_atexit(ptr nonnull @_ZN17FileLineSingletonD2Ev, ptr nonnull @_ZZN8FileLine9singletonEvE1s, ptr nonnull @__dso_handle) #40
  tail call void @__cxa_guard_release(ptr nonnull @_ZGVZN8FileLine9singletonEvE1s) #40
  br label %"_ZSt10__invoke_rIvRZN9V3Options13parseOptsListEP8FileLineRKNSt7__cxx1112basic_stringIcSt11char_traitsIcESaIcEEEiPPcE5$_128JEENSt9enable_ifIX16is_invocable_r_vIT_T0_DpT1_EESG_E4typeEOSH_DpOSI_.exit"

27:                                               ; preds = %24
  %28 = landingpad { ptr, i32 }
          cleanup
  br label %common.resume.i.i

"_ZSt10__invoke_rIvRZN9V3Options13parseOptsListEP8FileLineRKNSt7__cxx1112basic_stringIcSt11char_traitsIcESaIcEEEiPPcE5$_128JEENSt9enable_ifIX16is_invocable_r_vIT_T0_DpT1_EESG_E4typeEOSH_DpOSI_.exit": ; preds = %"_ZZN9V3Options13parseOptsListEP8FileLineRKNSt7__cxx1112basic_stringIcSt11char_traitsIcESaIcEEEiPPcENK5$_128clEv.exit.i.i", %22, %25
  %29 = load i16, ptr @_ZZN8FileLine15defaultFileLineEvE1s, align 8, !tbaa !91
  %30 = tail call noundef zeroext i16 @_ZN17FileLineSingleton11msgEnSetBitEtmb(ptr noundef nonnull align 8 dereferenceable(328) @_ZZN8FileLine9singletonEvE1s, i16 noundef zeroext %29, i64 noundef 42, i1 noundef zeroext true)
  store i16 %30, ptr @_ZZN8FileLine15defaultFileLineEvE1s, align 8, !tbaa !91
  tail call void @_ZN7V3Error12pretendErrorE11V3ErrorCodeb(i8 19, i1 noundef zeroext false)
  tail call void @_ZN7V3Error12pretendErrorE11V3ErrorCodeb(i8 42, i1 noundef zeroext false)
  ret void
}